target datalayout = "e-m:e-p270:32:32-p271:32:32-p272:64:64-i64:64-i128:128-f80:128-n8:16:32:64-S128"
target triple = "x86_64-pc-linux-gnu"

%struct.Cbs2_Par_t_ = type { i32, i32, i32, i32, i32, i32, i32, i32, i32, i32, i32, i32 }
%struct.Cbs2_Man_t_ = type { %struct.Cbs2_Par_t_, ptr, %struct.Cbs2_Que_t_, %struct.Cbs2_Que_t_, %struct.Cbs2_Que_t_, ptr, ptr, %struct.Vec_Str_t_, %struct.Vec_Str_t_, %struct.Vec_Int_t_, %struct.Vec_Int_t_, %struct.Vec_Int_t_, %struct.Vec_Int_t_, %struct.Vec_Int_t_, %struct.Vec_Int_t_, %struct.Vec_Int_t_, %struct.Vec_Int_t_, i32, i32, i32, i32, i32, i32, i32, i64, i64, i64, i64, i64, [3 x i32], [2 x i32], i32 }
%struct.Cbs2_Que_t_ = type { i32, i32, i32, ptr }
%struct.Vec_Str_t_ = type { i32, i32, ptr }
%struct.Vec_Int_t_ = type { i32, i32, ptr }

; Function Attrs: inlinehint nounwind uwtable
define internal void @Vec_IntFree(ptr noundef %0) #5 {
  %2 = alloca ptr, align 8
  store ptr %0, ptr %2, align 8, !tbaa !42
  %3 = load ptr, ptr %2, align 8, !tbaa !42
  %4 = getelementptr inbounds nuw %struct.Vec_Int_t_, ptr %3, i32 0, i32 2
  %5 = load ptr, ptr %4, align 8, !tbaa !45
  %6 = icmp ne ptr %5, null
  br i1 %6, label %7, label %13

7:                                                ; preds = %1
  %8 = load ptr, ptr %2, align 8, !tbaa !42
  %9 = getelementptr inbounds nuw %struct.Vec_Int_t_, ptr %8, i32 0, i32 2
  %10 = load ptr, ptr %9, align 8, !tbaa !45
  call void @free(ptr noundef %10) #11
  %11 = load ptr, ptr %2, align 8, !tbaa !42
  %12 = getelementptr inbounds nuw %struct.Vec_Int_t_, ptr %11, i32 0, i32 2
  store ptr null, ptr %12, align 8, !tbaa !45
  br label %14

13:                                               ; preds = %1
  br label %14

14:                                               ; preds = %13, %7
  %15 = load ptr, ptr %2, align 8, !tbaa !42
  %16 = icmp ne ptr %15, null
  br i1 %16, label %17, label %19

17:                                               ; preds = %14
  %18 = load ptr, ptr %2, align 8, !tbaa !42
  call void @free(ptr noundef %18) #11
  store ptr null, ptr %2, align 8, !tbaa !42
  br label %20

19:                                               ; preds = %14
  br label %20

20:                                               ; preds = %19, %17
  ret void
}

; Function Attrs: inlinehint nounwind uwtable
define internal void @Vec_IntErase(ptr noundef %0) #5 {
  %2 = alloca ptr, align 8
  store ptr %0, ptr %2, align 8, !tbaa !42
  %3 = load ptr, ptr %2, align 8, !tbaa !42
  %4 = getelementptr inbounds nuw %struct.Vec_Int_t_, ptr %3, i32 0, i32 2
  %5 = load ptr, ptr %4, align 8, !tbaa !45
  %6 = icmp ne ptr %5, null
  br i1 %6, label %7, label %13

7:                                                ; preds = %1
  %8 = load ptr, ptr %2, align 8, !tbaa !42
  %9 = getelementptr inbounds nuw %struct.Vec_Int_t_, ptr %8, i32 0, i32 2
  %10 = load ptr, ptr %9, align 8, !tbaa !45
  call void @free(ptr noundef %10) #11
  %11 = load ptr, ptr %2, align 8, !tbaa !42
  %12 = getelementptr inbounds nuw %struct.Vec_Int_t_, ptr %11, i32 0, i32 2
  store ptr null, ptr %12, align 8, !tbaa !45
  br label %14

13:                                               ; preds = %1
  br label %14

14:                                               ; preds = %13, %7
  %15 = load ptr, ptr %2, align 8, !tbaa !42
  %16 = getelementptr inbounds nuw %struct.Vec_Int_t_, ptr %15, i32 0, i32 1
  store i32 0, ptr %16, align 4, !tbaa !43
  %17 = load ptr, ptr %2, align 8, !tbaa !42
  %18 = getelementptr inbounds nuw %struct.Vec_Int_t_, ptr %17, i32 0, i32 0
  store i32 0, ptr %18, align 8, !tbaa !44
  ret void
}

; Function Attrs: inlinehint nounwind uwtable
define internal void @Vec_StrErase(ptr noundef %0) #5 {
  %2 = alloca ptr, align 8
  store ptr %0, ptr %2, align 8, !tbaa !46
  %3 = load ptr, ptr %2, align 8, !tbaa !46
  %4 = getelementptr inbounds nuw %struct.Vec_Str_t_, ptr %3, i32 0, i32 2
  %5 = load ptr, ptr %4, align 8, !tbaa !50
  %6 = icmp ne ptr %5, null
  br i1 %6, label %7, label %13

7:                                                ; preds = %1
  %8 = load ptr, ptr %2, align 8, !tbaa !46
  %9 = getelementptr inbounds nuw %struct.Vec_Str_t_, ptr %8, i32 0, i32 2
  %10 = load ptr, ptr %9, align 8, !tbaa !50
  call void @free(ptr noundef %10) #11
  %11 = load ptr, ptr %2, align 8, !tbaa !46
  %12 = getelementptr inbounds nuw %struct.Vec_Str_t_, ptr %11, i32 0, i32 2
  store ptr null, ptr %12, align 8, !tbaa !50
  br label %14

13:                                               ; preds = %1
  br label %14

14:                                               ; preds = %13, %7
  %15 = load ptr, ptr %2, align 8, !tbaa !46
  %16 = getelementptr inbounds nuw %struct.Vec_Str_t_, ptr %15, i32 0, i32 1
  store i32 0, ptr %16, align 4, !tbaa !49
  %17 = load ptr, ptr %2, align 8, !tbaa !46
  %18 = getelementptr inbounds nuw %struct.Vec_Str_t_, ptr %17, i32 0, i32 0
  store i32 0, ptr %18, align 8, !tbaa !68
  ret void
}

; Function Attrs: nounwind uwtable
define void @Cbs2_ManStop(ptr noundef %0) #0 {
  %2 = alloca ptr, align 8
  store ptr %0, ptr %2, align 8, !tbaa !17
  %3 = load ptr, ptr %2, align 8, !tbaa !17
  %4 = getelementptr inbounds nuw %struct.Cbs2_Man_t_, ptr %3, i32 0, i32 7
  call void @Vec_StrErase(ptr noundef %4)
  %5 = load ptr, ptr %2, align 8, !tbaa !17
  %6 = getelementptr inbounds nuw %struct.Cbs2_Man_t_, ptr %5, i32 0, i32 8
  call void @Vec_StrErase(ptr noundef %6)
  %7 = load ptr, ptr %2, align 8, !tbaa !17
  %8 = getelementptr inbounds nuw %struct.Cbs2_Man_t_, ptr %7, i32 0, i32 9
  call void @Vec_IntErase(ptr noundef %8)
  %9 = load ptr, ptr %2, align 8, !tbaa !17
  %10 = getelementptr inbounds nuw %struct.Cbs2_Man_t_, ptr %9, i32 0, i32 10
  call void @Vec_IntErase(ptr noundef %10)
  %11 = load ptr, ptr %2, align 8, !tbaa !17
  %12 = getelementptr inbounds nuw %struct.Cbs2_Man_t_, ptr %11, i32 0, i32 13
  call void @Vec_IntErase(ptr noundef %12)
  %13 = load ptr, ptr %2, align 8, !tbaa !17
  %14 = getelementptr inbounds nuw %struct.Cbs2_Man_t_, ptr %13, i32 0, i32 12
  call void @Vec_IntErase(ptr noundef %14)
  %15 = load ptr, ptr %2, align 8, !tbaa !17
  %16 = getelementptr inbounds nuw %struct.Cbs2_Man_t_, ptr %15, i32 0, i32 14
  call void @Vec_IntErase(ptr noundef %16)
  %17 = load ptr, ptr %2, align 8, !tbaa !17
  %18 = getelementptr inbounds nuw %struct.Cbs2_Man_t_, ptr %17, i32 0, i32 15
  call void @Vec_IntErase(ptr noundef %18)
  %19 = load ptr, ptr %2, align 8, !tbaa !17
  %20 = getelementptr inbounds nuw %struct.Cbs2_Man_t_, ptr %19, i32 0, i32 16
  call void @Vec_IntErase(ptr noundef %20)
  %21 = load ptr, ptr %2, align 8, !tbaa !17
  %22 = getelementptr inbounds nuw %struct.Cbs2_Man_t_, ptr %21, i32 0, i32 11
  call void @Vec_IntErase(ptr noundef %22)
  %23 = load ptr, ptr %2, align 8, !tbaa !17
  %24 = getelementptr inbounds nuw %struct.Cbs2_Man_t_, ptr %23, i32 0, i32 5
  %25 = load ptr, ptr %24, align 8, !tbaa !39
  call void @Vec_IntFree(ptr noundef %25)
  %26 = load ptr, ptr %2, align 8, !tbaa !17
  %27 = getelementptr inbounds nuw %struct.Cbs2_Man_t_, ptr %26, i32 0, i32 6
  %28 = load ptr, ptr %27, align 8, !tbaa !40
  call void @Vec_IntFree(ptr noundef %28)
  %29 = load ptr, ptr %2, align 8, !tbaa !17
  %30 = getelementptr inbounds nuw %struct.Cbs2_Man_t_, ptr %29, i32 0, i32 4
  %31 = getelementptr inbounds nuw %struct.Cbs2_Que_t_, ptr %30, i32 0, i32 3
  %32 = load ptr, ptr %31, align 8, !tbaa !36
  %33 = icmp ne ptr %32, null
  br i1 %33, label %34, label %42

34:                                               ; preds = %1
  %35 = load ptr, ptr %2, align 8, !tbaa !17
  %36 = getelementptr inbounds nuw %struct.Cbs2_Man_t_, ptr %35, i32 0, i32 4
  %37 = getelementptr inbounds nuw %struct.Cbs2_Que_t_, ptr %36, i32 0, i32 3
  %38 = load ptr, ptr %37, align 8, !tbaa !36
  call void @free(ptr noundef %38) #11
  %39 = load ptr, ptr %2, align 8, !tbaa !17
  %40 = getelementptr inbounds nuw %struct.Cbs2_Man_t_, ptr %39, i32 0, i32 4
  %41 = getelementptr inbounds nuw %struct.Cbs2_Que_t_, ptr %40, i32 0, i32 3
  store ptr null, ptr %41, align 8, !tbaa !36
  br label %43

42:                                               ; preds = %1
  br label %43

43:                                               ; preds = %42, %34
  %44 = load ptr, ptr %2, align 8, !tbaa !17
  %45 = getelementptr inbounds nuw %struct.Cbs2_Man_t_, ptr %44, i32 0, i32 2
  %46 = getelementptr inbounds nuw %struct.Cbs2_Que_t_, ptr %45, i32 0, i32 3
  %47 = load ptr, ptr %46, align 8, !tbaa !34
  %48 = icmp ne ptr %47, null
  br i1 %48, label %49, label %57

49:                                               ; preds = %43
  %50 = load ptr, ptr %2, align 8, !tbaa !17
  %51 = getelementptr inbounds nuw %struct.Cbs2_Man_t_, ptr %50, i32 0, i32 2
  %52 = getelementptr inbounds nuw %struct.Cbs2_Que_t_, ptr %51, i32 0, i32 3
  %53 = load ptr, ptr %52, align 8, !tbaa !34
  call void @free(ptr noundef %53) #11
  %54 = load ptr, ptr %2, align 8, !tbaa !17
  %55 = getelementptr inbounds nuw %struct.Cbs2_Man_t_, ptr %54, i32 0, i32 2
  %56 = getelementptr inbounds nuw %struct.Cbs2_Que_t_, ptr %55, i32 0, i32 3
  store ptr null, ptr %56, align 8, !tbaa !34
  br label %58

57:                                               ; preds = %43
  br label %58

58:                                               ; preds = %57, %49
  %59 = load ptr, ptr %2, align 8, !tbaa !17
  %60 = getelementptr inbounds nuw %struct.Cbs2_Man_t_, ptr %59, i32 0, i32 3
  %61 = getelementptr inbounds nuw %struct.Cbs2_Que_t_, ptr %60, i32 0, i32 3
  %62 = load ptr, ptr %61, align 8, !tbaa !35
  %63 = icmp ne ptr %62, null
  br i1 %63, label %64, label %72

64:                                               ; preds = %58
  %65 = load ptr, ptr %2, align 8, !tbaa !17
  %66 = getelementptr inbounds nuw %struct.Cbs2_Man_t_, ptr %65, i32 0, i32 3
  %67 = getelementptr inbounds nuw %struct.Cbs2_Que_t_, ptr %66, i32 0, i32 3
  %68 = load ptr, ptr %67, align 8, !tbaa !35
  call void @free(ptr noundef %68) #11
  %69 = load ptr, ptr %2, align 8, !tbaa !17
  %70 = getelementptr inbounds nuw %struct.Cbs2_Man_t_, ptr %69, i32 0, i32 3
  %71 = getelementptr inbounds nuw %struct.Cbs2_Que_t_, ptr %70, i32 0, i32 3
  store ptr null, ptr %71, align 8, !tbaa !35
  br label %73

72:                                               ; preds = %58
  br label %73

73:                                               ; preds = %72, %64
  %74 = load ptr, ptr %2, align 8, !tbaa !17
  %75 = icmp ne ptr %74, null
  br i1 %75, label %76, label %78

76:                                               ; preds = %73
  %77 = load ptr, ptr %2, align 8, !tbaa !17
  call void @free(ptr noundef %77) #11
  store ptr null, ptr %2, align 8, !tbaa !17
  br label %79

78:                                               ; preds = %73
  br label %79

79:                                               ; preds = %78, %76
  ret void
}