; Function Attrs: mustprogress nounwind willreturn uwtable
define void @Cbs2_ManStop(ptr noundef captures(none) initializes((144, 152), (160, 168), (176, 184), (192, 200), (208, 216), (224, 232), (240, 248), (256, 264), (272, 280), (288, 296)) %0) local_unnamed_addr #6 {
  %2 = getelementptr inbounds nuw i8, ptr %0, i64 144
  %3 = getelementptr inbounds nuw i8, ptr %0, i64 152
  %4 = load ptr, ptr %3, align 8, !tbaa !55
  %.not.i = icmp eq ptr %4, null
  br i1 %.not.i, label %Vec_StrErase.exit, label %5

5:                                                ; preds = %1
  tail call void @free(ptr noundef nonnull %4) #28
  store ptr null, ptr %3, align 8, !tbaa !55
  br label %Vec_StrErase.exit

Vec_StrErase.exit:                                ; preds = %1, %5
  %6 = getelementptr inbounds nuw i8, ptr %0, i64 148
  store i32 0, ptr %6, align 4, !tbaa !54
  store i32 0, ptr %2, align 8, !tbaa !56
  %7 = getelementptr inbounds nuw i8, ptr %0, i64 160
  %8 = getelementptr inbounds nuw i8, ptr %0, i64 168
  %9 = load ptr, ptr %8, align 8, !tbaa !55
  %.not.i29 = icmp eq ptr %9, null
  br i1 %.not.i29, label %Vec_StrErase.exit30, label %10

10:                                               ; preds = %Vec_StrErase.exit
  tail call void @free(ptr noundef nonnull %9) #28
  store ptr null, ptr %8, align 8, !tbaa !55
  br label %Vec_StrErase.exit30

Vec_StrErase.exit30:                              ; preds = %Vec_StrErase.exit, %10
  %11 = getelementptr inbounds nuw i8, ptr %0, i64 164
  store i32 0, ptr %11, align 4, !tbaa !54
  store i32 0, ptr %7, align 8, !tbaa !56
  %12 = getelementptr inbounds nuw i8, ptr %0, i64 176
  %13 = getelementptr inbounds nuw i8, ptr %0, i64 184
  %14 = load ptr, ptr %13, align 8, !tbaa !35
  %.not.i31 = icmp eq ptr %14, null
  br i1 %.not.i31, label %Vec_IntErase.exit, label %15

15:                                               ; preds = %Vec_StrErase.exit30
  tail call void @free(ptr noundef nonnull %14) #28
  store ptr null, ptr %13, align 8, !tbaa !35
  br label %Vec_IntErase.exit

Vec_IntErase.exit:                                ; preds = %Vec_StrErase.exit30, %15
  %16 = getelementptr inbounds nuw i8, ptr %0, i64 180
  store i32 0, ptr %16, align 4, !tbaa !33
  store i32 0, ptr %12, align 8, !tbaa !34
  %17 = getelementptr inbounds nuw i8, ptr %0, i64 192
  %18 = getelementptr inbounds nuw i8, ptr %0, i64 200
  %19 = load ptr, ptr %18, align 8, !tbaa !35
  %.not.i32 = icmp eq ptr %19, null
  br i1 %.not.i32, label %Vec_IntErase.exit33, label %20

20:                                               ; preds = %Vec_IntErase.exit
  tail call void @free(ptr noundef nonnull %19) #28
  store ptr null, ptr %18, align 8, !tbaa !35
  br label %Vec_IntErase.exit33

Vec_IntErase.exit33:                              ; preds = %Vec_IntErase.exit, %20
  %21 = getelementptr inbounds nuw i8, ptr %0, i64 196
  store i32 0, ptr %21, align 4, !tbaa !33
  store i32 0, ptr %17, align 8, !tbaa !34
  %22 = getelementptr inbounds nuw i8, ptr %0, i64 240
  %23 = getelementptr inbounds nuw i8, ptr %0, i64 248
  %24 = load ptr, ptr %23, align 8, !tbaa !35
  %.not.i34 = icmp eq ptr %24, null
  br i1 %.not.i34, label %Vec_IntErase.exit35, label %25

25:                                               ; preds = %Vec_IntErase.exit33
  tail call void @free(ptr noundef nonnull %24) #28
  store ptr null, ptr %23, align 8, !tbaa !35
  br label %Vec_IntErase.exit35

Vec_IntErase.exit35:                              ; preds = %Vec_IntErase.exit33, %25
  %26 = getelementptr inbounds nuw i8, ptr %0, i64 244
  store i32 0, ptr %26, align 4, !tbaa !33
  store i32 0, ptr %22, align 8, !tbaa !34
  %27 = getelementptr inbounds nuw i8, ptr %0, i64 224
  %28 = getelementptr inbounds nuw i8, ptr %0, i64 232
  %29 = load ptr, ptr %28, align 8, !tbaa !35
  %.not.i36 = icmp eq ptr %29, null
  br i1 %.not.i36, label %Vec_IntErase.exit37, label %30

30:                                               ; preds = %Vec_IntErase.exit35
  tail call void @free(ptr noundef nonnull %29) #28
  store ptr null, ptr %28, align 8, !tbaa !35
  br label %Vec_IntErase.exit37

Vec_IntErase.exit37:                              ; preds = %Vec_IntErase.exit35, %30
  %31 = getelementptr inbounds nuw i8, ptr %0, i64 228
  store i32 0, ptr %31, align 4, !tbaa !33
  store i32 0, ptr %27, align 8, !tbaa !34
  %32 = getelementptr inbounds nuw i8, ptr %0, i64 256
  %33 = getelementptr inbounds nuw i8, ptr %0, i64 264
  %34 = load ptr, ptr %33, align 8, !tbaa !35
  %.not.i38 = icmp eq ptr %34, null
  br i1 %.not.i38, label %Vec_IntErase.exit39, label %35

35:                                               ; preds = %Vec_IntErase.exit37
  tail call void @free(ptr noundef nonnull %34) #28
  store ptr null, ptr %33, align 8, !tbaa !35
  br label %Vec_IntErase.exit39

Vec_IntErase.exit39:                              ; preds = %Vec_IntErase.exit37, %35
  %36 = getelementptr inbounds nuw i8, ptr %0, i64 260
  store i32 0, ptr %36, align 4, !tbaa !33
  store i32 0, ptr %32, align 8, !tbaa !34
  %37 = getelementptr inbounds nuw i8, ptr %0, i64 272
  %38 = getelementptr inbounds nuw i8, ptr %0, i64 280
  %39 = load ptr, ptr %38, align 8, !tbaa !35
  %.not.i40 = icmp eq ptr %39, null
  br i1 %.not.i40, label %Vec_IntErase.exit41, label %40

40:                                               ; preds = %Vec_IntErase.exit39
  tail call void @free(ptr noundef nonnull %39) #28
  store ptr null, ptr %38, align 8, !tbaa !35
  br label %Vec_IntErase.exit41

Vec_IntErase.exit41:                              ; preds = %Vec_IntErase.exit39, %40
  %41 = getelementptr inbounds nuw i8, ptr %0, i64 276
  store i32 0, ptr %41, align 4, !tbaa !33
  store i32 0, ptr %37, align 8, !tbaa !34
  %42 = getelementptr inbounds nuw i8, ptr %0, i64 288
  %43 = getelementptr inbounds nuw i8, ptr %0, i64 296
  %44 = load ptr, ptr %43, align 8, !tbaa !35
  %.not.i42 = icmp eq ptr %44, null
  br i1 %.not.i42, label %Vec_IntErase.exit43, label %45

45:                                               ; preds = %Vec_IntErase.exit41
  tail call void @free(ptr noundef nonnull %44) #28
  store ptr null, ptr %43, align 8, !tbaa !35
  br label %Vec_IntErase.exit43

Vec_IntErase.exit43:                              ; preds = %Vec_IntErase.exit41, %45
  %46 = getelementptr inbounds nuw i8, ptr %0, i64 292
  store i32 0, ptr %46, align 4, !tbaa !33
  store i32 0, ptr %42, align 8, !tbaa !34
  %47 = getelementptr inbounds nuw i8, ptr %0, i64 208
  %48 = getelementptr inbounds nuw i8, ptr %0, i64 216
  %49 = load ptr, ptr %48, align 8, !tbaa !35
  %.not.i44 = icmp eq ptr %49, null
  br i1 %.not.i44, label %Vec_IntErase.exit45, label %50

50:                                               ; preds = %Vec_IntErase.exit43
  tail call void @free(ptr noundef nonnull %49) #28
  store ptr null, ptr %48, align 8, !tbaa !35
  br label %Vec_IntErase.exit45

Vec_IntErase.exit45:                              ; preds = %Vec_IntErase.exit43, %50
  %51 = getelementptr inbounds nuw i8, ptr %0, i64 212
  store i32 0, ptr %51, align 4, !tbaa !33
  store i32 0, ptr %47, align 8, !tbaa !34
  %52 = getelementptr inbounds nuw i8, ptr %0, i64 128
  %53 = load ptr, ptr %52, align 8, !tbaa !36
  %54 = getelementptr inbounds nuw i8, ptr %53, i64 8
  %55 = load ptr, ptr %54, align 8, !tbaa !35
  %.not.i46 = icmp eq ptr %55, null
  br i1 %.not.i46, label %Vec_IntFree.exit, label %56

56:                                               ; preds = %Vec_IntErase.exit45
  tail call void @free(ptr noundef nonnull %55) #28
  br label %Vec_IntFree.exit

Vec_IntFree.exit:                                 ; preds = %Vec_IntErase.exit45, %56
  tail call void @free(ptr noundef nonnull %53) #28
  %57 = getelementptr inbounds nuw i8, ptr %0, i64 136
  %58 = load ptr, ptr %57, align 8, !tbaa !37
  %59 = getelementptr inbounds nuw i8, ptr %58, i64 8
  %60 = load ptr, ptr %59, align 8, !tbaa !35
  %.not.i47 = icmp eq ptr %60, null
  br i1 %.not.i47, label %Vec_IntFree.exit48, label %61

61:                                               ; preds = %Vec_IntFree.exit
  tail call void @free(ptr noundef nonnull %60) #28
  br label %Vec_IntFree.exit48

Vec_IntFree.exit48:                               ; preds = %Vec_IntFree.exit, %61
  tail call void @free(ptr noundef nonnull %58) #28
  %62 = getelementptr inbounds nuw i8, ptr %0, i64 120
  %63 = load ptr, ptr %62, align 8, !tbaa !30
  %.not = icmp eq ptr %63, null
  br i1 %.not, label %65, label %64

64:                                               ; preds = %Vec_IntFree.exit48
  tail call void @free(ptr noundef nonnull %63) #28
  store ptr null, ptr %62, align 8, !tbaa !30
  br label %65

65:                                               ; preds = %Vec_IntFree.exit48, %64
  %66 = getelementptr inbounds nuw i8, ptr %0, i64 72
  %67 = load ptr, ptr %66, align 8, !tbaa !28
  %.not26 = icmp eq ptr %67, null
  br i1 %.not26, label %69, label %68

68:                                               ; preds = %65
  tail call void @free(ptr noundef nonnull %67) #28
  store ptr null, ptr %66, align 8, !tbaa !28
  br label %69

69:                                               ; preds = %65, %68
  %70 = getelementptr inbounds nuw i8, ptr %0, i64 96
  %71 = load ptr, ptr %70, align 8, !tbaa !29
  %.not27 = icmp eq ptr %71, null
  br i1 %.not27, label %73, label %72

72:                                               ; preds = %69
  tail call void @free(ptr noundef nonnull %71) #28
  br label %73

73:                                               ; preds = %69, %72
  tail call void @free(ptr noundef nonnull %0) #28
  ret void
}